target datalayout = "e-m:e-p270:32:32-p271:32:32-p272:64:64-i64:64-i128:128-f80:128-n8:16:32:64-S128"
target triple = "x86_64-pc-linux-gnu"

%struct.SiprModeParam = type { ptr, i16, i8, i8, float, i8, i8, [5 x i8], [5 x i8], i8, [10 x i8], i8 }
%struct.AVChannelLayout = type { i32, i32, %union.anon.0, ptr }
%union.anon.0 = type { i64 }
%struct.AVCodecContext = type { ptr, i32, i32, ptr, i32, i32, ptr, ptr, ptr, i64, i32, i32, ptr, i32, %struct.AVRational, %struct.AVRational, %struct.AVRational, i32, i32, i32, i32, i32, %struct.AVRational, i32, i32, i32, i32, i32, i32, i32, i32, i32, i32, i32, ptr, ptr, i32, float, float, float, float, float, float, float, float, float, i32, i32, i32, i32, i32, i32, i32, i32, i32, i32, i32, i32, ptr, ptr, ptr, i32, i32, i32, i32, i32, i32, i32, i32, i32, i32, %struct.AVChannelLayout, i32, i32, i32, i32, i32, i32, i32, i32, ptr, i32, i32, i32, float, float, i32, i32, i32, i32, i32, ptr, i64, i64, float, float, i32, i32, ptr, ptr, i32, i32, i32, i32, i32, ptr, ptr, ptr, ptr, i32, i32, [8 x i64], i32, i32, i32, i32, i32, i32, i32, ptr, ptr, i32, i32, i32, i32, i32, i32, i32, i32, i32, i32, ptr, ptr, i32, i32, ptr, ptr, ptr, ptr, i32, i32, i64, i32, i32, i64, ptr, i64, ptr, i32, ptr, i32 }
%struct.AVRational = type { i32, i32 }
%struct.SiprContext = type { i32, float, [16 x float], [452 x float], [8 x i8], [256 x float], [10 x float], float, [4 x float], [2 x float], [153 x float], float, float, [153 x float], [250 x float], i32, [17 x float], [2 x [17 x float]], [2 x ptr], [16 x float], [16 x float], [16 x double], ptr, [8 x i8] }

@.str.2 = private unnamed_addr constant [64 x i8] c"Invalid block_align: %d. Mode %s guessed based on bitrate: %ld\0A\00", align 1
@.str.3 = private unnamed_addr constant [10 x i8] c"Mode: %s\0A\00", align 1

; Function Attrs: cold nounwind optsize uwtable
define internal i32 @sipr_decoder_init(ptr noundef %0) #0 {
  %2 = alloca ptr, align 8
  %3 = alloca ptr, align 8
  %4 = alloca i32, align 4
  %5 = alloca %struct.AVChannelLayout, align 8
  store ptr %0, ptr %2, align 8, !tbaa !4
  call void @llvm.lifetime.start.p0(i64 8, ptr %3) #9
  %6 = load ptr, ptr %2, align 8, !tbaa !4
  %7 = getelementptr inbounds nuw %struct.AVCodecContext, ptr %6, i32 0, i32 6
  %8 = load ptr, ptr %7, align 8, !tbaa !9
  store ptr %8, ptr %3, align 8, !tbaa !29
  call void @llvm.lifetime.start.p0(i64 4, ptr %4) #9
  %9 = load ptr, ptr %2, align 8, !tbaa !4
  %10 = getelementptr inbounds nuw %struct.AVCodecContext, ptr %9, i32 0, i32 73
  %11 = load i32, ptr %10, align 4, !tbaa !31
  switch i32 %11, label %24 [
    i32 20, label %12
    i32 19, label %15
    i32 29, label %18
    i32 37, label %21
  ]

12:                                               ; preds = %1
  %13 = load ptr, ptr %3, align 8, !tbaa !29
  %14 = getelementptr inbounds nuw %struct.SiprContext, ptr %13, i32 0, i32 0
  store i32 0, ptr %14, align 16, !tbaa !32
  br label %68

15:                                               ; preds = %1
  %16 = load ptr, ptr %3, align 8, !tbaa !29
  %17 = getelementptr inbounds nuw %struct.SiprContext, ptr %16, i32 0, i32 0
  store i32 1, ptr %17, align 16, !tbaa !32
  br label %68

18:                                               ; preds = %1
  %19 = load ptr, ptr %3, align 8, !tbaa !29
  %20 = getelementptr inbounds nuw %struct.SiprContext, ptr %19, i32 0, i32 0
  store i32 2, ptr %20, align 16, !tbaa !32
  br label %68

21:                                               ; preds = %1
  %22 = load ptr, ptr %3, align 8, !tbaa !29
  %23 = getelementptr inbounds nuw %struct.SiprContext, ptr %22, i32 0, i32 0
  store i32 3, ptr %23, align 16, !tbaa !32
  br label %68

24:                                               ; preds = %1
  %25 = load ptr, ptr %2, align 8, !tbaa !4
  %26 = getelementptr inbounds nuw %struct.AVCodecContext, ptr %25, i32 0, i32 9
  %27 = load i64, ptr %26, align 8, !tbaa !34
  %28 = icmp sgt i64 %27, 12200
  br i1 %28, label %29, label %32

29:                                               ; preds = %24
  %30 = load ptr, ptr %3, align 8, !tbaa !29
  %31 = getelementptr inbounds nuw %struct.SiprContext, ptr %30, i32 0, i32 0
  store i32 0, ptr %31, align 16, !tbaa !32
  br label %53

32:                                               ; preds = %24
  %33 = load ptr, ptr %2, align 8, !tbaa !4
  %34 = getelementptr inbounds nuw %struct.AVCodecContext, ptr %33, i32 0, i32 9
  %35 = load i64, ptr %34, align 8, !tbaa !34
  %36 = icmp sgt i64 %35, 7500
  br i1 %36, label %37, label %40

37:                                               ; preds = %32
  %38 = load ptr, ptr %3, align 8, !tbaa !29
  %39 = getelementptr inbounds nuw %struct.SiprContext, ptr %38, i32 0, i32 0
  store i32 1, ptr %39, align 16, !tbaa !32
  br label %52

40:                                               ; preds = %32
  %41 = load ptr, ptr %2, align 8, !tbaa !4
  %42 = getelementptr inbounds nuw %struct.AVCodecContext, ptr %41, i32 0, i32 9
  %43 = load i64, ptr %42, align 8, !tbaa !34
  %44 = icmp sgt i64 %43, 5750
  br i1 %44, label %45, label %48

45:                                               ; preds = %40
  %46 = load ptr, ptr %3, align 8, !tbaa !29
  %47 = getelementptr inbounds nuw %struct.SiprContext, ptr %46, i32 0, i32 0
  store i32 2, ptr %47, align 16, !tbaa !32
  br label %51

48:                                               ; preds = %40
  %49 = load ptr, ptr %3, align 8, !tbaa !29
  %50 = getelementptr inbounds nuw %struct.SiprContext, ptr %49, i32 0, i32 0
  store i32 3, ptr %50, align 16, !tbaa !32
  br label %51

51:                                               ; preds = %48, %45
  br label %52

52:                                               ; preds = %51, %37
  br label %53

53:                                               ; preds = %52, %29
  %54 = load ptr, ptr %2, align 8, !tbaa !4
  %55 = load ptr, ptr %2, align 8, !tbaa !4
  %56 = getelementptr inbounds nuw %struct.AVCodecContext, ptr %55, i32 0, i32 73
  %57 = load i32, ptr %56, align 4, !tbaa !31
  %58 = load ptr, ptr %3, align 8, !tbaa !29
  %59 = getelementptr inbounds nuw %struct.SiprContext, ptr %58, i32 0, i32 0
  %60 = load i32, ptr %59, align 16, !tbaa !32
  %61 = zext i32 %60 to i64
  %62 = getelementptr inbounds nuw [4 x %struct.SiprModeParam], ptr @modes, i64 0, i64 %61
  %63 = getelementptr inbounds nuw %struct.SiprModeParam, ptr %62, i32 0, i32 0
  %64 = load ptr, ptr %63, align 8, !tbaa !35
  %65 = load ptr, ptr %2, align 8, !tbaa !4
  %66 = getelementptr inbounds nuw %struct.AVCodecContext, ptr %65, i32 0, i32 9
  %67 = load i64, ptr %66, align 8, !tbaa !34
  call void (ptr, i32, ptr, ...) @av_log(ptr noundef %54, i32 noundef 24, ptr noundef @.str.2, i32 noundef %57, ptr noundef %64, i64 noundef %67)
  br label %68

68:                                               ; preds = %53, %21, %18, %15, %12
  %69 = load ptr, ptr %2, align 8, !tbaa !4
  %70 = load ptr, ptr %3, align 8, !tbaa !29
  %71 = getelementptr inbounds nuw %struct.SiprContext, ptr %70, i32 0, i32 0
  %72 = load i32, ptr %71, align 16, !tbaa !32
  %73 = zext i32 %72 to i64
  %74 = getelementptr inbounds nuw [4 x %struct.SiprModeParam], ptr @modes, i64 0, i64 %73
  %75 = getelementptr inbounds nuw %struct.SiprModeParam, ptr %74, i32 0, i32 0
  %76 = load ptr, ptr %75, align 8, !tbaa !35
  call void (ptr, i32, ptr, ...) @av_log(ptr noundef %69, i32 noundef 48, ptr noundef @.str.3, ptr noundef %76)
  %77 = load ptr, ptr %3, align 8, !tbaa !29
  %78 = getelementptr inbounds nuw %struct.SiprContext, ptr %77, i32 0, i32 0
  %79 = load i32, ptr %78, align 16, !tbaa !32
  %80 = icmp eq i32 %79, 0
  br i1 %80, label %81, label %85

81:                                               ; preds = %68
  %82 = load ptr, ptr %3, align 8, !tbaa !29
  call void @ff_sipr_init_16k(ptr noundef %82)
  %83 = load ptr, ptr %3, align 8, !tbaa !29
  %84 = getelementptr inbounds nuw %struct.SiprContext, ptr %83, i32 0, i32 22
  store ptr @ff_sipr_decode_frame_16k, ptr %84, align 16, !tbaa !38
  br label %88

85:                                               ; preds = %68
  %86 = load ptr, ptr %3, align 8, !tbaa !29
  %87 = getelementptr inbounds nuw %struct.SiprContext, ptr %86, i32 0, i32 22
  store ptr @decode_frame, ptr %87, align 16, !tbaa !38
  br label %88

88:                                               ; preds = %85, %81
  store i32 0, ptr %4, align 4, !tbaa !39
  br label %89

89:                                               ; preds = %105, %88
  %90 = load i32, ptr %4, align 4, !tbaa !39
  %91 = icmp slt i32 %90, 10
  br i1 %91, label %92, label %108

92:                                               ; preds = %89
  %93 = load i32, ptr %4, align 4, !tbaa !39
  %94 = add nsw i32 %93, 1
  %95 = sitofp i32 %94 to double
  %96 = fmul nsz double %95, 0x400921FB54442D18
  %97 = fdiv nsz double %96, 1.100000e+01
  %98 = call nsz double @llvm.cos.f64(double %97)
  %99 = fptrunc nsz double %98 to float
  %100 = load ptr, ptr %3, align 8, !tbaa !29
  %101 = getelementptr inbounds nuw %struct.SiprContext, ptr %100, i32 0, i32 6
  %102 = load i32, ptr %4, align 4, !tbaa !39
  %103 = sext i32 %102 to i64
  %104 = getelementptr inbounds [10 x float], ptr %101, i64 0, i64 %103
  store float %99, ptr %104, align 4, !tbaa !40
  br label %105

105:                                              ; preds = %92
  %106 = load i32, ptr %4, align 4, !tbaa !39
  %107 = add nsw i32 %106, 1
  store i32 %107, ptr %4, align 4, !tbaa !39
  br label %89, !llvm.loop !41

108:                                              ; preds = %89
  store i32 0, ptr %4, align 4, !tbaa !39
  br label %109

109:                                              ; preds = %118, %108
  %110 = load i32, ptr %4, align 4, !tbaa !39
  %111 = icmp slt i32 %110, 4
  br i1 %111, label %112, label %121

112:                                              ; preds = %109
  %113 = load ptr, ptr %3, align 8, !tbaa !29
  %114 = getelementptr inbounds nuw %struct.SiprContext, ptr %113, i32 0, i32 8
  %115 = load i32, ptr %4, align 4, !tbaa !39
  %116 = sext i32 %115 to i64
  %117 = getelementptr inbounds [4 x float], ptr %114, i64 0, i64 %116
  store float -1.400000e+01, ptr %117, align 4, !tbaa !40
  br label %118

118:                                              ; preds = %112
  %119 = load i32, ptr %4, align 4, !tbaa !39
  %120 = add nsw i32 %119, 1
  store i32 %120, ptr %4, align 4, !tbaa !39
  br label %109, !llvm.loop !43

121:                                              ; preds = %109
  %122 = load ptr, ptr %2, align 8, !tbaa !4
  %123 = getelementptr inbounds nuw %struct.AVCodecContext, ptr %122, i32 0, i32 71
  call void @av_channel_layout_uninit(ptr noundef %123)
  %124 = load ptr, ptr %2, align 8, !tbaa !4
  %125 = getelementptr inbounds nuw %struct.AVCodecContext, ptr %124, i32 0, i32 71
  %126 = getelementptr inbounds nuw %struct.AVChannelLayout, ptr %5, i32 0, i32 0
  store i32 1, ptr %126, align 8, !tbaa !44
  %127 = getelementptr inbounds nuw %struct.AVChannelLayout, ptr %5, i32 0, i32 1
  store i32 1, ptr %127, align 4, !tbaa !45
  %128 = getelementptr inbounds nuw %struct.AVChannelLayout, ptr %5, i32 0, i32 2
  store i64 4, ptr %128, align 8, !tbaa !46
  %129 = getelementptr inbounds nuw %struct.AVChannelLayout, ptr %5, i32 0, i32 3
  store ptr null, ptr %129, align 8, !tbaa !47
  call void @llvm.memcpy.p0.p0.i64(ptr align 8 %125, ptr align 8 %5, i64 24, i1 false), !tbaa.struct !48
  %130 = load ptr, ptr %2, align 8, !tbaa !4
  %131 = getelementptr inbounds nuw %struct.AVCodecContext, ptr %130, i32 0, i32 70
  store i32 3, ptr %131, align 4, !tbaa !50
  call void @llvm.lifetime.end.p0(i64 4, ptr %4) #9
  call void @llvm.lifetime.end.p0(i64 8, ptr %3) #9
  ret i32 0
}