; Function Attrs: cold nounwind optsize uwtable
define internal noundef i32 @sipr_decoder_init(ptr noundef %0) #0 {
  %2 = getelementptr inbounds nuw i8, ptr %0, i64 32
  %3 = load ptr, ptr %2, align 8, !tbaa !4
  %4 = getelementptr inbounds nuw i8, ptr %0, i64 380
  %5 = load i32, ptr %4, align 4, !tbaa !27
  switch i32 %5, label %10 [
    i32 20, label %6
    i32 19, label %7
    i32 29, label %8
    i32 37, label %9
  ]

6:                                                ; preds = %1
  store i32 0, ptr %3, align 16, !tbaa !28
  br label %23

7:                                                ; preds = %1
  store i32 1, ptr %3, align 16, !tbaa !28
  br label %23

8:                                                ; preds = %1
  store i32 2, ptr %3, align 16, !tbaa !28
  br label %23

9:                                                ; preds = %1
  store i32 3, ptr %3, align 16, !tbaa !28
  br label %23

10:                                               ; preds = %1
  %11 = getelementptr inbounds nuw i8, ptr %0, i64 56
  %12 = load i64, ptr %11, align 8, !tbaa !30
  %13 = icmp sgt i64 %12, 12200
  br i1 %13, label %18, label %14

14:                                               ; preds = %10
  %15 = icmp sgt i64 %12, 7500
  br i1 %15, label %18, label %16

16:                                               ; preds = %14
  %17 = icmp sgt i64 %12, 5750
  %. = select i1 %17, i32 2, i32 3
  %.42 = select i1 %17, i64 2, i64 3
  br label %18

18:                                               ; preds = %16, %14, %10
  %.sink = phi i32 [ 0, %10 ], [ 1, %14 ], [ %., %16 ]
  %19 = phi i64 [ 0, %10 ], [ 1, %14 ], [ %.42, %16 ]
  store i32 %.sink, ptr %3, align 16, !tbaa !28
  %20 = getelementptr inbounds nuw [4 x %struct.SiprModeParam], ptr @modes, i64 0, i64 %19
  %21 = load ptr, ptr %20, align 8, !tbaa !31
  tail call void (ptr, i32, ptr, ...) @av_log(ptr noundef nonnull %0, i32 noundef 24, ptr noundef nonnull @.str.2, i32 noundef %5, ptr noundef %21, i64 noundef %12) #8
  %.pre = load i32, ptr %3, align 16, !tbaa !28
  %22 = zext i32 %.pre to i64
  br label %23

23:                                               ; preds = %18, %9, %8, %7, %6
  %24 = phi i64 [ %22, %18 ], [ 3, %9 ], [ 2, %8 ], [ 1, %7 ], [ 0, %6 ]
  %25 = getelementptr inbounds nuw [4 x %struct.SiprModeParam], ptr @modes, i64 0, i64 %24
  %26 = load ptr, ptr %25, align 8, !tbaa !31
  tail call void (ptr, i32, ptr, ...) @av_log(ptr noundef nonnull %0, i32 noundef 48, ptr noundef nonnull @.str.3, ptr noundef %26) #8
  %27 = load i32, ptr %3, align 16, !tbaa !28
  %28 = icmp eq i32 %27, 0
  br i1 %28, label %29, label %30

29:                                               ; preds = %23
  tail call void @ff_sipr_init_16k(ptr noundef nonnull %3) #8
  br label %30

30:                                               ; preds = %23, %29
  %decode_frame.sink = phi ptr [ @ff_sipr_decode_frame_16k, %29 ], [ @decode_frame, %23 ]
  %31 = getelementptr inbounds nuw i8, ptr %3, i64 5696
  store ptr %decode_frame.sink, ptr %31, align 16, !tbaa !34
  %32 = getelementptr inbounds nuw i8, ptr %3, i64 2912
  br label %34

.preheader:                                       ; preds = %34
  %33 = getelementptr inbounds nuw i8, ptr %3, i64 2956
  br label %42

34:                                               ; preds = %30, %34
  %indvars.iv = phi i64 [ 0, %30 ], [ %indvars.iv.next, %34 ]
  %indvars.iv.next = add nuw nsw i64 %indvars.iv, 1
  %35 = trunc nuw nsw i64 %indvars.iv.next to i32
  %36 = uitofp nneg i32 %35 to double
  %37 = fmul nsz double %36, 0x400921FB54442D18
  %38 = fdiv nsz double %37, 1.100000e+01
  %39 = tail call nsz double @llvm.cos.f64(double %38)
  %40 = fptrunc nsz double %39 to float
  %41 = getelementptr inbounds nuw [10 x float], ptr %32, i64 0, i64 %indvars.iv
  store float %40, ptr %41, align 4, !tbaa !35
  %exitcond.not = icmp eq i64 %indvars.iv.next, 10
  br i1 %exitcond.not, label %.preheader, label %34, !llvm.loop !36

42:                                               ; preds = %.preheader, %42
  %indvars.iv38 = phi i64 [ 0, %.preheader ], [ %indvars.iv.next39, %42 ]
  %43 = getelementptr inbounds nuw [4 x float], ptr %33, i64 0, i64 %indvars.iv38
  store float -1.400000e+01, ptr %43, align 4, !tbaa !35
  %indvars.iv.next39 = add nuw nsw i64 %indvars.iv38, 1
  %exitcond41.not = icmp eq i64 %indvars.iv.next39, 4
  br i1 %exitcond41.not, label %44, label %42, !llvm.loop !38

44:                                               ; preds = %42
  %45 = getelementptr inbounds nuw i8, ptr %0, i64 352
  tail call void @av_channel_layout_uninit(ptr noundef nonnull %45) #8
  store i32 1, ptr %45, align 8, !tbaa !39
  %.sroa.2.0..sroa_idx = getelementptr inbounds nuw i8, ptr %0, i64 356
  store i32 1, ptr %.sroa.2.0..sroa_idx, align 4, !tbaa !39
  %.sroa.3.0..sroa_idx = getelementptr inbounds nuw i8, ptr %0, i64 360
  store i64 4, ptr %.sroa.3.0..sroa_idx, align 8, !tbaa !40
  %.sroa.4.0..sroa_idx = getelementptr inbounds nuw i8, ptr %0, i64 368
  store ptr null, ptr %.sroa.4.0..sroa_idx, align 8, !tbaa !41
  %46 = getelementptr inbounds nuw i8, ptr %0, i64 348
  store i32 3, ptr %46, align 4, !tbaa !42
  ret i32 0
}